ccopy_reg
_reconstructor
p0
(cgoogle.oauth2.credentials
Credentials
p1
c__builtin__
object
p2
Ntp3
Rp4
(dp5
S'_token_uri'
p6
Vhttps://oauth2.googleapis.com/token
p7
sS'_client_secret'
p8
VJSgJCOd_FzlK09gkQksET0Ql
p9
sS'_id_token'
p10
NsS'token'
p11
Vya29.GltXB_sVBqIW03QN0GLAxw2ccHleZXQ5ZDaTXzJWU_MfuOQeZk0QANeFfVCWdaWbn-m6Xc1YvPylOh6WA3_ueU3sYvgfJq0Rn5Dk9ldzR9eN124rNf2JMtEOq9LA
p12
sS'_refresh_token'
p13
V1/rFCDRP2Q29s5VoQr0EtmcOIPQcBAR_JOIEHp21DUpKE
p14
sS'_scopes'
p15
(lp16
S'https://www.googleapis.com/auth/calendar.readonly'
p17
asS'_client_id'
p18
V1033119862323-u495s7i6qcplc36k46ubm3bo1bdbvjgh.apps.googleusercontent.com
p19
sS'expiry'
p20
cdatetime
datetime
p21
(S'\x07\xe3\x08\x01\x12\x01!\x08\r/'
p22
tp23
Rp24
sb.